target datalayout = "e-m:e-p270:32:32-p271:32:32-p272:64:64-i64:64-i128:128-f80:128-n8:16:32:64-S128"
target triple = "x86_64-unknown-linux-gnu"

%"class.QuantLib::Array" = type { %"class.std::unique_ptr", i64 }
%"class.std::unique_ptr" = type { %"struct.std::__uniq_ptr_data" }
%"struct.std::__uniq_ptr_data" = type { %"class.std::__uniq_ptr_impl" }
%"class.std::__uniq_ptr_impl" = type { %"class.std::tuple" }
%"class.std::tuple" = type { %"struct.std::_Tuple_impl" }
%"struct.std::_Tuple_impl" = type { %"struct.std::_Head_base.1" }
%"struct.std::_Head_base.1" = type { ptr }
%"struct.QuantLib::DifferentialEvolution::Candidate" = type { %"class.QuantLib::Array", double }
%"class.QuantLib::DifferentialEvolution::Configuration" = type { i32, i32, i64, double, double, i64, i8, i8, %"class.std::vector", %"class.QuantLib::Array", %"class.QuantLib::Array" }
%"class.std::vector" = type { %"struct.std::_Vector_base" }
%"struct.std::_Vector_base" = type { %"struct.std::_Vector_base<QuantLib::Array, std::allocator<QuantLib::Array>>::_Vector_impl" }
%"struct.std::_Vector_base<QuantLib::Array, std::allocator<QuantLib::Array>>::_Vector_impl" = type { %"struct.std::_Vector_base<QuantLib::Array, std::allocator<QuantLib::Array>>::_Vector_impl_data" }
%"struct.std::_Vector_base<QuantLib::Array, std::allocator<QuantLib::Array>>::_Vector_impl_data" = type { ptr, ptr, ptr }
%"class.QuantLib::DifferentialEvolution" = type { %"class.QuantLib::OptimizationMethod", %"class.QuantLib::DifferentialEvolution::Configuration", %"class.QuantLib::Array", %"class.QuantLib::Array", %"class.QuantLib::Array", %"class.QuantLib::Array", %"struct.QuantLib::DifferentialEvolution::Candidate", %"class.QuantLib::MersenneTwisterUniformRng" }
%"class.QuantLib::OptimizationMethod" = type { ptr }
%"class.QuantLib::MersenneTwisterUniformRng" = type { [624 x i64], i64 }

; Function Attrs: mustprogress nounwind uwtable
define linkonce_odr noundef nonnull align 8 dereferenceable(8) ptr @_ZNSt10_Head_baseILm0EPdLb0EE7_M_headERKS1_(ptr noundef nonnull align 8 dereferenceable(8) %__b) #3 comdat align 2 {
entry:
  %__b.addr = alloca ptr, align 8
  store ptr %__b, ptr %__b.addr, align 8, !tbaa !3
  %0 = load ptr, ptr %__b.addr, align 8, !tbaa !3
  %_M_head_impl = getelementptr inbounds nuw %"struct.std::_Head_base.1", ptr %0, i32 0, i32 0
  ret ptr %_M_head_impl
}

; Function Attrs: mustprogress nounwind uwtable
define linkonce_odr noundef nonnull align 8 dereferenceable(8) ptr @_ZNSt11_Tuple_implILm0EJPdSt14default_deleteIA_dEEE7_M_headERKS4_(ptr noundef nonnull align 8 dereferenceable(8) %__t) #3 comdat align 2 {
entry:
  %__t.addr = alloca ptr, align 8
  store ptr %__t, ptr %__t.addr, align 8, !tbaa !3
  %0 = load ptr, ptr %__t.addr, align 8, !tbaa !3
  %call = call noundef nonnull align 8 dereferenceable(8) ptr @_ZNSt10_Head_baseILm0EPdLb0EE7_M_headERKS1_(ptr noundef nonnull align 8 dereferenceable(8) %0) #16
  ret ptr %call
}

; Function Attrs: mustprogress nounwind uwtable
define linkonce_odr noundef nonnull align 8 dereferenceable(8) ptr @_ZSt12__get_helperILm0EPdJSt14default_deleteIA_dEEERKT0_RKSt11_Tuple_implIXT_EJS4_DpT1_EE(ptr noundef nonnull align 8 dereferenceable(8) %__t) #3 comdat {
entry:
  %__t.addr = alloca ptr, align 8
  store ptr %__t, ptr %__t.addr, align 8, !tbaa !3
  %0 = load ptr, ptr %__t.addr, align 8, !tbaa !3
  %call = call noundef nonnull align 8 dereferenceable(8) ptr @_ZNSt11_Tuple_implILm0EJPdSt14default_deleteIA_dEEE7_M_headERKS4_(ptr noundef nonnull align 8 dereferenceable(8) %0) #16
  ret ptr %call
}

; Function Attrs: mustprogress nounwind uwtable
define linkonce_odr noundef nonnull align 8 dereferenceable(8) ptr @_ZSt3getILm0EJPdSt14default_deleteIA_dEEERKNSt13tuple_elementIXT_ESt5tupleIJDpT0_EEE4typeERKS8_(ptr noundef nonnull align 8 dereferenceable(8) %__t) #3 comdat {
entry:
  %__t.addr = alloca ptr, align 8
  store ptr %__t, ptr %__t.addr, align 8, !tbaa !3
  %0 = load ptr, ptr %__t.addr, align 8, !tbaa !3
  %call = call noundef nonnull align 8 dereferenceable(8) ptr @_ZSt12__get_helperILm0EPdJSt14default_deleteIA_dEEERKT0_RKSt11_Tuple_implIXT_EJS4_DpT1_EE(ptr noundef nonnull align 8 dereferenceable(8) %0) #16
  ret ptr %call
}

; Function Attrs: mustprogress nounwind uwtable
define linkonce_odr noundef ptr @_ZNKSt15__uniq_ptr_implIdSt14default_deleteIA_dEE6_M_ptrEv(ptr noundef nonnull align 8 dereferenceable(8) %this) #3 comdat align 2 {
entry:
  %this.addr = alloca ptr, align 8
  store ptr %this, ptr %this.addr, align 8, !tbaa !3
  %this1 = load ptr, ptr %this.addr, align 8
  %_M_t = getelementptr inbounds nuw %"class.std::__uniq_ptr_impl", ptr %this1, i32 0, i32 0
  %call = call noundef nonnull align 8 dereferenceable(8) ptr @_ZSt3getILm0EJPdSt14default_deleteIA_dEEERKNSt13tuple_elementIXT_ESt5tupleIJDpT0_EEE4typeERKS8_(ptr noundef nonnull align 8 dereferenceable(8) %_M_t) #16
  %0 = load ptr, ptr %call, align 8, !tbaa !3
  ret ptr %0
}

; Function Attrs: mustprogress uwtable
define linkonce_odr noundef i64 @_ZNK8QuantLib25MersenneTwisterUniformRng9nextInt32Ev(ptr noundef nonnull align 8 dereferenceable(5000) %this) #0 comdat align 2 {
entry:
  %this.addr = alloca ptr, align 8
  %y = alloca i64, align 8
  store ptr %this, ptr %this.addr, align 8, !tbaa !3
  %this1 = load ptr, ptr %this.addr, align 8
  %mti = getelementptr inbounds nuw %"class.QuantLib::MersenneTwisterUniformRng", ptr %this1, i32 0, i32 1
  %0 = load i64, ptr %mti, align 8, !tbaa !102
  %cmp = icmp eq i64 %0, 624
  br i1 %cmp, label %if.then, label %if.end

if.then:                                          ; preds = %entry
  call void @_ZNK8QuantLib25MersenneTwisterUniformRng5twistEv(ptr noundef nonnull align 8 dereferenceable(5000) %this1)
  br label %if.end

if.end:                                           ; preds = %if.then, %entry
  call void @llvm.lifetime.start.p0(i64 8, ptr %y) #16
  %mt = getelementptr inbounds nuw %"class.QuantLib::MersenneTwisterUniformRng", ptr %this1, i32 0, i32 0
  %mti2 = getelementptr inbounds nuw %"class.QuantLib::MersenneTwisterUniformRng", ptr %this1, i32 0, i32 1
  %1 = load i64, ptr %mti2, align 8, !tbaa !102
  %inc = add i64 %1, 1
  store i64 %inc, ptr %mti2, align 8, !tbaa !102
  %arrayidx = getelementptr inbounds nuw [624 x i64], ptr %mt, i64 0, i64 %1
  %2 = load i64, ptr %arrayidx, align 8, !tbaa !27
  store i64 %2, ptr %y, align 8, !tbaa !27
  %3 = load i64, ptr %y, align 8, !tbaa !27
  %shr = lshr i64 %3, 11
  %4 = load i64, ptr %y, align 8, !tbaa !27
  %xor = xor i64 %4, %shr
  store i64 %xor, ptr %y, align 8, !tbaa !27
  %5 = load i64, ptr %y, align 8, !tbaa !27
  %shl = shl i64 %5, 7
  %and = and i64 %shl, 2636928640
  %6 = load i64, ptr %y, align 8, !tbaa !27
  %xor3 = xor i64 %6, %and
  store i64 %xor3, ptr %y, align 8, !tbaa !27
  %7 = load i64, ptr %y, align 8, !tbaa !27
  %shl4 = shl i64 %7, 15
  %and5 = and i64 %shl4, 4022730752
  %8 = load i64, ptr %y, align 8, !tbaa !27
  %xor6 = xor i64 %8, %and5
  store i64 %xor6, ptr %y, align 8, !tbaa !27
  %9 = load i64, ptr %y, align 8, !tbaa !27
  %shr7 = lshr i64 %9, 18
  %10 = load i64, ptr %y, align 8, !tbaa !27
  %xor8 = xor i64 %10, %shr7
  store i64 %xor8, ptr %y, align 8, !tbaa !27
  %11 = load i64, ptr %y, align 8, !tbaa !27
  call void @llvm.lifetime.end.p0(i64 8, ptr %y) #16
  ret i64 %11
}

; Function Attrs: mustprogress nounwind uwtable
define linkonce_odr noundef ptr @_ZNKSt10unique_ptrIA_dSt14default_deleteIS0_EE3getEv(ptr noundef nonnull align 8 dereferenceable(8) %this) #3 comdat align 2 {
entry:
  %this.addr = alloca ptr, align 8
  store ptr %this, ptr %this.addr, align 8, !tbaa !3
  %this1 = load ptr, ptr %this.addr, align 8
  %_M_t = getelementptr inbounds nuw %"class.std::unique_ptr", ptr %this1, i32 0, i32 0
  %call = call noundef ptr @_ZNKSt15__uniq_ptr_implIdSt14default_deleteIA_dEE6_M_ptrEv(ptr noundef nonnull align 8 dereferenceable(8) %_M_t) #16
  ret ptr %call
}

; Function Attrs: mustprogress uwtable
define linkonce_odr noundef double @_ZNK8QuantLib25MersenneTwisterUniformRng8nextRealEv(ptr noundef nonnull align 8 dereferenceable(5000) %this) #0 comdat align 2 {
entry:
  %this.addr = alloca ptr, align 8
  store ptr %this, ptr %this.addr, align 8, !tbaa !3
  %this1 = load ptr, ptr %this.addr, align 8
  %call = call noundef i64 @_ZNK8QuantLib25MersenneTwisterUniformRng9nextInt32Ev(ptr noundef nonnull align 8 dereferenceable(5000) %this1)
  %conv = uitofp i64 %call to double
  %add = fadd double %conv, 5.000000e-01
  %div = fdiv double %add, 0x41F0000000000000
  ret double %div
}

; Function Attrs: inlinehint mustprogress nounwind uwtable
define linkonce_odr noundef ptr @_ZN8QuantLib5Array3endEv(ptr noundef nonnull align 8 dereferenceable(16) %this) #4 comdat align 2 {
entry:
  %this.addr = alloca ptr, align 8
  store ptr %this, ptr %this.addr, align 8, !tbaa !3
  %this1 = load ptr, ptr %this.addr, align 8
  %data_ = getelementptr inbounds nuw %"class.QuantLib::Array", ptr %this1, i32 0, i32 0
  %call = call noundef ptr @_ZNKSt10unique_ptrIA_dSt14default_deleteIS0_EE3getEv(ptr noundef nonnull align 8 dereferenceable(8) %data_) #16
  %n_ = getelementptr inbounds nuw %"class.QuantLib::Array", ptr %this1, i32 0, i32 1
  %0 = load i64, ptr %n_, align 8, !tbaa !48
  %add.ptr = getelementptr inbounds nuw double, ptr %call, i64 %0
  ret ptr %add.ptr
}

; Function Attrs: inlinehint mustprogress nounwind uwtable
define linkonce_odr noundef ptr @_ZN8QuantLib5Array5beginEv(ptr noundef nonnull align 8 dereferenceable(16) %this) #4 comdat align 2 {
entry:
  %this.addr = alloca ptr, align 8
  store ptr %this, ptr %this.addr, align 8, !tbaa !3
  %this1 = load ptr, ptr %this.addr, align 8
  %data_ = getelementptr inbounds nuw %"class.QuantLib::Array", ptr %this1, i32 0, i32 0
  %call = call noundef ptr @_ZNKSt10unique_ptrIA_dSt14default_deleteIS0_EE3getEv(ptr noundef nonnull align 8 dereferenceable(8) %data_) #16
  ret ptr %call
}

; Function Attrs: mustprogress uwtable
define void @_ZNK8QuantLib21DifferentialEvolution16adaptSizeWeightsEv(ptr noundef nonnull align 8 dereferenceable(5200) %this) #0 align 2 {
entry:
  %this.addr = alloca ptr, align 8
  %sizeWeightLowerBound = alloca double, align 8
  %sizeWeightUpperBound = alloca double, align 8
  %sizeWeightChangeProb = alloca double, align 8
  %__range1 = alloca ptr, align 8
  %__begin1 = alloca ptr, align 8
  %__end1 = alloca ptr, align 8
  %currGenSizeWeight = alloca ptr, align 8
  store ptr %this, ptr %this.addr, align 8, !tbaa !3
  %this1 = load ptr, ptr %this.addr, align 8
  call void @llvm.lifetime.start.p0(i64 8, ptr %sizeWeightLowerBound) #16
  store double 1.000000e-01, ptr %sizeWeightLowerBound, align 8, !tbaa !34
  call void @llvm.lifetime.start.p0(i64 8, ptr %sizeWeightUpperBound) #16
  store double 9.000000e-01, ptr %sizeWeightUpperBound, align 8, !tbaa !34
  call void @llvm.lifetime.start.p0(i64 8, ptr %sizeWeightChangeProb) #16
  store double 1.000000e-01, ptr %sizeWeightChangeProb, align 8, !tbaa !34
  call void @llvm.lifetime.start.p0(i64 8, ptr %__range1) #16
  %currGenSizeWeights_ = getelementptr inbounds nuw %"class.QuantLib::DifferentialEvolution", ptr %this1, i32 0, i32 4
  store ptr %currGenSizeWeights_, ptr %__range1, align 8, !tbaa !3
  call void @llvm.lifetime.start.p0(i64 8, ptr %__begin1) #16
  %0 = load ptr, ptr %__range1, align 8, !tbaa !3
  %call = call noundef ptr @_ZN8QuantLib5Array5beginEv(ptr noundef nonnull align 8 dereferenceable(16) %0)
  store ptr %call, ptr %__begin1, align 8, !tbaa !3
  call void @llvm.lifetime.start.p0(i64 8, ptr %__end1) #16
  %1 = load ptr, ptr %__range1, align 8, !tbaa !3
  %call2 = call noundef ptr @_ZN8QuantLib5Array3endEv(ptr noundef nonnull align 8 dereferenceable(16) %1)
  store ptr %call2, ptr %__end1, align 8, !tbaa !3
  br label %for.cond

for.cond:                                         ; preds = %for.inc, %entry
  %2 = load ptr, ptr %__begin1, align 8, !tbaa !3
  %3 = load ptr, ptr %__end1, align 8, !tbaa !3
  %cmp = icmp ne ptr %2, %3
  br i1 %cmp, label %for.body, label %for.cond.cleanup

for.cond.cleanup:                                 ; preds = %for.cond
  call void @llvm.lifetime.end.p0(i64 8, ptr %__end1) #16
  call void @llvm.lifetime.end.p0(i64 8, ptr %__begin1) #16
  call void @llvm.lifetime.end.p0(i64 8, ptr %__range1) #16
  br label %for.end

for.body:                                         ; preds = %for.cond
  call void @llvm.lifetime.start.p0(i64 8, ptr %currGenSizeWeight) #16
  %4 = load ptr, ptr %__begin1, align 8, !tbaa !3
  store ptr %4, ptr %currGenSizeWeight, align 8, !tbaa !3
  %rng_ = getelementptr inbounds nuw %"class.QuantLib::DifferentialEvolution", ptr %this1, i32 0, i32 7
  %call3 = call noundef double @_ZNK8QuantLib25MersenneTwisterUniformRng8nextRealEv(ptr noundef nonnull align 8 dereferenceable(5000) %rng_)
  %5 = load double, ptr %sizeWeightChangeProb, align 8, !tbaa !34
  %cmp4 = fcmp olt double %call3, %5
  br i1 %cmp4, label %if.then, label %if.end

if.then:                                          ; preds = %for.body
  %6 = load double, ptr %sizeWeightLowerBound, align 8, !tbaa !34
  %rng_5 = getelementptr inbounds nuw %"class.QuantLib::DifferentialEvolution", ptr %this1, i32 0, i32 7
  %call6 = call noundef double @_ZNK8QuantLib25MersenneTwisterUniformRng8nextRealEv(ptr noundef nonnull align 8 dereferenceable(5000) %rng_5)
  %7 = load double, ptr %sizeWeightUpperBound, align 8, !tbaa !34
  %8 = call double @llvm.fmuladd.f64(double %call6, double %7, double %6)
  %9 = load ptr, ptr %currGenSizeWeight, align 8, !tbaa !3
  store double %8, ptr %9, align 8, !tbaa !34
  br label %if.end

if.end:                                           ; preds = %if.then, %for.body
  call void @llvm.lifetime.end.p0(i64 8, ptr %currGenSizeWeight) #16
  br label %for.inc

for.inc:                                          ; preds = %if.end
  %10 = load ptr, ptr %__begin1, align 8, !tbaa !3
  %incdec.ptr = getelementptr inbounds nuw double, ptr %10, i32 1
  store ptr %incdec.ptr, ptr %__begin1, align 8, !tbaa !3
  br label %for.cond

for.end:                                          ; preds = %for.cond.cleanup
  call void @llvm.lifetime.end.p0(i64 8, ptr %sizeWeightChangeProb) #16
  call void @llvm.lifetime.end.p0(i64 8, ptr %sizeWeightUpperBound) #16
  call void @llvm.lifetime.end.p0(i64 8, ptr %sizeWeightLowerBound) #16
  ret void
}